; Function Attrs: mustprogress nofree norecurse nosync nounwind memory(argmem: readwrite) uwtable
define internal void @_ZN2cv12cpu_baselineL12scaleAdd_64fEPKdS2_PdiS3_(ptr noundef readonly captures(none) %0, ptr noundef readonly captures(none) %1, ptr noundef writeonly captures(none) %2, i32 noundef %3, ptr noundef readonly captures(none) %4) #9 {
  %6 = load double, ptr %4, align 8, !tbaa !45
  %7 = icmp sgt i32 %3, 0
  br i1 %7, label %.lr.ph.preheader, label %._crit_edge

.lr.ph.preheader:                                 ; preds = %5
  %wide.trip.count = zext nneg i32 %3 to i64
  br label %.lr.ph

.lr.ph:                                           ; preds = %.lr.ph.preheader, %.lr.ph
  %indvars.iv = phi i64 [ 0, %.lr.ph.preheader ], [ %indvars.iv.next, %.lr.ph ]
  %8 = getelementptr inbounds nuw double, ptr %0, i64 %indvars.iv
  %9 = load double, ptr %8, align 8, !tbaa !45
  %10 = getelementptr inbounds nuw double, ptr %1, i64 %indvars.iv
  %11 = load double, ptr %10, align 8, !tbaa !45
  %12 = tail call double @llvm.fmuladd.f64(double %9, double %6, double %11)
  %13 = getelementptr inbounds nuw double, ptr %2, i64 %indvars.iv
  store double %12, ptr %13, align 8, !tbaa !45
  %indvars.iv.next = add nuw nsw i64 %indvars.iv, 1
  %exitcond.not = icmp eq i64 %indvars.iv.next, %wide.trip.count
  br i1 %exitcond.not, label %._crit_edge, label %.lr.ph, !llvm.loop !125

._crit_edge:                                      ; preds = %.lr.ph, %5
  ret void
}